; Function Attrs: mustprogress uwtable
define noundef zeroext i1 @_ZN3net13NullDecrypter23SetDiversificationNonceERKSt5arrayIcLm32EE(ptr nonnull readnone align 8 captures(none) %0, ptr nonnull readnone align 1 captures(none) %1) unnamed_addr #2 align 2 personality ptr @__gxx_personality_v0 {
  %3 = alloca %"class.logging::LogMessage", align 8
  %4 = tail call noundef zeroext i1 @_ZN7logging22ShouldCreateLogMessageEi(i32 noundef 2)
  br i1 %4, label %5, label %.critedge6

5:                                                ; preds = %2
  call void @llvm.lifetime.start.p0(i64 408, ptr nonnull %3) #9
  call void @_ZN7logging10LogMessageC1EPKcii(ptr noundef nonnull align 8 dereferenceable(404) %3, ptr noundef nonnull @.str, i32 noundef 34, i32 noundef 2)
  %6 = getelementptr inbounds nuw i8, ptr %3, i64 8
  %7 = invoke noundef nonnull align 8 dereferenceable(8) ptr @_ZSt16__ostream_insertIcSt11char_traitsIcEERSt13basic_ostreamIT_T0_ES6_PKS3_l(ptr noundef nonnull align 8 dereferenceable(8) %6, ptr noundef nonnull @.str.1, i64 noundef 20)
          to label %.critedge unwind label %8

.critedge:                                        ; preds = %5
  call void @_ZN7logging10LogMessageD1Ev(ptr noundef nonnull align 8 dereferenceable(404) %3) #9
  call void @llvm.lifetime.end.p0(i64 408, ptr nonnull %3) #9
  br label %.critedge6

.critedge6:                                       ; preds = %2, %.critedge
  ret i1 true

8:                                                ; preds = %5
  %9 = landingpad { ptr, i32 }
          cleanup
  call void @_ZN7logging10LogMessageD1Ev(ptr noundef nonnull align 8 dereferenceable(404) %3) #9
  call void @llvm.lifetime.end.p0(i64 408, ptr nonnull %3) #9
  resume { ptr, i32 } %9
}